target datalayout = "e-m:e-p270:32:32-p271:32:32-p272:64:64-i64:64-i128:128-f80:128-n8:16:32:64-S128"
target triple = "x86_64-pc-linux-gnu"

%struct.b2ContactEndTouchEventArray = type { ptr, i32, i32 }

; Function Attrs: nounwind uwtable
define hidden void @b2ContactEndTouchEventArray_Reserve(ptr noundef %0, i32 noundef %1) #0 {
  %3 = alloca ptr, align 8
  %4 = alloca i32, align 4
  store ptr %0, ptr %3, align 8, !tbaa !12
  store i32 %1, ptr %4, align 4, !tbaa !3
  %5 = load i32, ptr %4, align 4, !tbaa !3
  %6 = load ptr, ptr %3, align 8, !tbaa !12
  %7 = getelementptr inbounds nuw %struct.b2ContactEndTouchEventArray, ptr %6, i32 0, i32 2
  %8 = load i32, ptr %7, align 4, !tbaa !22
  %9 = icmp sle i32 %5, %8
  br i1 %9, label %10, label %11

10:                                               ; preds = %2
  br label %31

11:                                               ; preds = %2
  %12 = load ptr, ptr %3, align 8, !tbaa !12
  %13 = getelementptr inbounds nuw %struct.b2ContactEndTouchEventArray, ptr %12, i32 0, i32 0
  %14 = load ptr, ptr %13, align 8, !tbaa !19
  %15 = load ptr, ptr %3, align 8, !tbaa !12
  %16 = getelementptr inbounds nuw %struct.b2ContactEndTouchEventArray, ptr %15, i32 0, i32 2
  %17 = load i32, ptr %16, align 4, !tbaa !22
  %18 = sext i32 %17 to i64
  %19 = mul i64 %18, 16
  %20 = trunc i64 %19 to i32
  %21 = load i32, ptr %4, align 4, !tbaa !3
  %22 = sext i32 %21 to i64
  %23 = mul i64 %22, 16
  %24 = trunc i64 %23 to i32
  %25 = call ptr @b2GrowAlloc(ptr noundef %14, i32 noundef %20, i32 noundef %24)
  %26 = load ptr, ptr %3, align 8, !tbaa !12
  %27 = getelementptr inbounds nuw %struct.b2ContactEndTouchEventArray, ptr %26, i32 0, i32 0
  store ptr %25, ptr %27, align 8, !tbaa !19
  %28 = load i32, ptr %4, align 4, !tbaa !3
  %29 = load ptr, ptr %3, align 8, !tbaa !12
  %30 = getelementptr inbounds nuw %struct.b2ContactEndTouchEventArray, ptr %29, i32 0, i32 2
  store i32 %28, ptr %30, align 4, !tbaa !22
  br label %31

31:                                               ; preds = %11, %10
  ret void
}